target datalayout = "e-m:e-p270:32:32-p271:32:32-p272:64:64-i64:64-i128:128-f80:128-n8:16:32:64-S128"
target triple = "x86_64-unknown-linux-gnu"

%"class.EA::StdC::Callback" = type { ptr, i64, i64, ptr, ptr, ptr, i32, %"class.EA::Thread::AtomicInt", i8, i8, i64, i64 }
%"class.EA::Thread::AtomicInt" = type { %"struct.std::atomic" }
%"struct.std::atomic" = type { %"struct.std::__atomic_base" }
%"struct.std::__atomic_base" = type { i32 }

; Function Attrs: mustprogress uwtable
define dso_local void @_ZN2EA4StdC8Callback4CallEmm(ptr noundef nonnull align 8 dereferenceable(80) %this, i64 noundef %absoluteValue, i64 noundef %deltaValue) #2 align 2 {
entry:
  %this.addr = alloca ptr, align 8
  %absoluteValue.addr = alloca i64, align 8
  %deltaValue.addr = alloca i64, align 8
  store ptr %this, ptr %this.addr, align 8
  store i64 %absoluteValue, ptr %absoluteValue.addr, align 8
  store i64 %deltaValue, ptr %deltaValue.addr, align 8
  %this1 = load ptr, ptr %this.addr, align 8
  %mpFunction = getelementptr inbounds %"class.EA::StdC::Callback", ptr %this1, i32 0, i32 4
  %0 = load ptr, ptr %mpFunction, align 8
  %tobool = icmp ne ptr %0, null
  br i1 %tobool, label %if.then, label %if.end

if.then:                                          ; preds = %entry
  %mpFunction2 = getelementptr inbounds %"class.EA::StdC::Callback", ptr %this1, i32 0, i32 4
  %1 = load ptr, ptr %mpFunction2, align 8
  %mpFunctionArg = getelementptr inbounds %"class.EA::StdC::Callback", ptr %this1, i32 0, i32 5
  %2 = load ptr, ptr %mpFunctionArg, align 8
  %3 = load i64, ptr %absoluteValue.addr, align 8
  %4 = load i64, ptr %deltaValue.addr, align 8
  call void %1(ptr noundef %this1, ptr noundef %2, i64 noundef %3, i64 noundef %4)
  br label %if.end

if.end:                                           ; preds = %if.then, %entry
  ret void
}

; Function Attrs: mustprogress uwtable
define dso_local void @_ZN2EA4StdC8Callback14AddRefCallbackEv(ptr noundef nonnull align 8 dereferenceable(80) %this) #2 align 2 {
entry:
  %this.addr = alloca ptr, align 8
  store ptr %this, ptr %this.addr, align 8
  %this1 = load ptr, ptr %this.addr, align 8
  call void @_ZN2EA4StdC8Callback4CallEmm(ptr noundef nonnull align 8 dereferenceable(80) %this1, i64 noundef 0, i64 noundef 0)
  ret void
}